; Function Attrs: mustprogress uwtable
define internal void @_ZN11opencv_test12_GLOBAL__N_129TestBoundingRect_BoundingRect12PerfTestBodyEv(ptr noundef nonnull align 8 dereferenceable(256) %0) unnamed_addr #3 align 2 personality ptr @__gxx_personality_v0 {
  %2 = alloca %"class.cv::Mat", align 8
  %3 = alloca %"class.cv::_InputOutputArray", align 8
  %4 = alloca %"class.cv::_InputArray", align 8
  %5 = tail call fastcc noundef nonnull align 4 dereferenceable(8) ptr @_ZNK7testing18WithParamInterfaceISt5tupleIJN4perf12_GLOBAL__N_18MatDepthEiEEE8GetParamEv()
  %6 = getelementptr inbounds i8, ptr %5, i64 4
  %.val = load i32, ptr %6, align 4
  %7 = tail call fastcc noundef nonnull align 4 dereferenceable(8) ptr @_ZNK7testing18WithParamInterfaceISt5tupleIJN4perf12_GLOBAL__N_18MatDepthEiEEE8GetParamEv()
  %8 = load i32, ptr %7, align 4
  call void @_ZN2cv3MatC1Eiii(ptr noundef nonnull align 8 dereferenceable(96) %2, i32 noundef %8, i32 noundef 2, i32 noundef %.val)
  %9 = getelementptr inbounds i8, ptr %3, i64 8
  %10 = getelementptr inbounds i8, ptr %3, i64 16
  store i64 0, ptr %10, align 8
  store i32 50397184, ptr %3, align 8
  store ptr %2, ptr %9, align 8
  %11 = getelementptr inbounds i8, ptr %0, i64 240
  %12 = invoke noundef nonnull align 8 dereferenceable(8) ptr @_ZN4perf8TestBase14_declareHelper2inERKN2cv17_InputOutputArrayENS0_10WarmUpTypeE(ptr noundef nonnull align 8 dereferenceable(8) %11, ptr noundef nonnull align 8 dereferenceable(24) %3, i32 noundef 2)
          to label %.preheader unwind label %27

.preheader:                                       ; preds = %1
  %13 = getelementptr inbounds i8, ptr %4, i64 16
  %14 = getelementptr inbounds i8, ptr %4, i64 20
  %15 = getelementptr inbounds i8, ptr %4, i64 8
  br label %16

16:                                               ; preds = %.preheader, %24
  %17 = invoke noundef zeroext i1 @_ZN4perf8TestBase4nextEv(ptr noundef nonnull align 8 dereferenceable(248) %0)
          to label %18 unwind label %25

18:                                               ; preds = %16
  br i1 %17, label %19, label %.critedge

19:                                               ; preds = %18
  %20 = invoke noundef zeroext i1 @_ZN4perf8TestBase10startTimerEv(ptr noundef nonnull align 8 dereferenceable(248) %0)
          to label %21 unwind label %25

21:                                               ; preds = %19
  br i1 %20, label %22, label %.critedge

22:                                               ; preds = %21
  store i32 0, ptr %13, align 8
  store i32 0, ptr %14, align 4
  store i32 16842752, ptr %4, align 8
  store ptr %2, ptr %15, align 8
  %23 = invoke { i64, i64 } @_ZN2cv12boundingRectERKNS_11_InputArrayE(ptr noundef nonnull align 8 dereferenceable(24) %4)
          to label %24 unwind label %29

24:                                               ; preds = %22
  invoke void @_ZN4perf8TestBase9stopTimerEv(ptr noundef nonnull align 8 dereferenceable(248) %0)
          to label %16 unwind label %25, !llvm.loop !228

25:                                               ; preds = %24, %19, %16
  %26 = landingpad { ptr, i32 }
          cleanup
  br label %32

27:                                               ; preds = %1
  %28 = landingpad { ptr, i32 }
          cleanup
  br label %32

29:                                               ; preds = %22
  %30 = landingpad { ptr, i32 }
          cleanup
  br label %32

.critedge:                                        ; preds = %18, %21
  %31 = getelementptr inbounds i8, ptr %0, i64 232
  store i8 1, ptr %31, align 8
  call void @_ZN2cv3MatD1Ev(ptr noundef nonnull align 8 dereferenceable(96) %2) #25
  ret void

32:                                               ; preds = %29, %27, %25
  %.pn = phi { ptr, i32 } [ %26, %25 ], [ %30, %29 ], [ %28, %27 ]
  call void @_ZN2cv3MatD1Ev(ptr noundef nonnull align 8 dereferenceable(96) %2) #25
  resume { ptr, i32 } %.pn
}